target datalayout = "e-m:e-p270:32:32-p271:32:32-p272:64:64-i64:64-i128:128-f80:128-n8:16:32:64-S128"
target triple = "x86_64-pc-linux-gnu"

%struct.slurmdb_update_object_t = type { ptr, i16 }

@.str.263 = private unnamed_addr constant [7 x i8] c"fedmgr\00", align 1
@.str.264 = private unnamed_addr constant [32 x i8] c"%s: cannot set my name to %s %m\00", align 1
@__func__._acct_update_list_for_each = private unnamed_addr constant [27 x i8] c"_acct_update_list_for_each\00", align 1

; Function Attrs: nounwind uwtable
define internal i32 @_acct_update_list_for_each(ptr noundef %0, ptr noundef %1) #0 {
  %3 = alloca ptr, align 8
  %4 = alloca ptr, align 8
  %5 = alloca ptr, align 8
  %6 = alloca i8, align 1
  store ptr %0, ptr %3, align 8
  store ptr %1, ptr %4, align 8
  call void @llvm.lifetime.start.p0(i64 8, ptr %5) #11
  %7 = load ptr, ptr %3, align 8
  store ptr %7, ptr %5, align 8
  call void @llvm.lifetime.start.p0(i64 1, ptr %6) #11
  store i8 0, ptr %6, align 1
  %8 = load ptr, ptr %5, align 8
  %9 = getelementptr inbounds nuw %struct.slurmdb_update_object_t, ptr %8, i32 0, i32 1
  %10 = load i16, ptr %9, align 8
  %11 = zext i16 %10 to i32
  switch i32 %11, label %20 [
    i32 23, label %12
  ]

12:                                               ; preds = %2
  %13 = call i32 (i32, ...) @prctl(i32 noundef 15, ptr noundef @.str.263, ptr noundef null, ptr noundef null, ptr noundef null) #11
  %14 = icmp slt i32 %13, 0
  br i1 %14, label %15, label %17

15:                                               ; preds = %12
  %16 = call i32 (ptr, ...) @error(ptr noundef @.str.264, ptr noundef @__func__._acct_update_list_for_each, ptr noundef @.str.263)
  br label %17

17:                                               ; preds = %15, %12
  %18 = load ptr, ptr %5, align 8
  %19 = call i32 @fed_mgr_update_feds(ptr noundef %18)
  br label %23

20:                                               ; preds = %2
  %21 = load ptr, ptr %3, align 8
  %22 = call i32 @assoc_mgr_update_object(ptr noundef %21, ptr noundef %6)
  br label %23

23:                                               ; preds = %20, %17
  call void @llvm.lifetime.end.p0(i64 1, ptr %6) #11
  call void @llvm.lifetime.end.p0(i64 8, ptr %5) #11
  ret i32 1
}