; Function Attrs: nounwind uwtable
define internal noundef i32 @_acct_update_list_for_each(ptr noundef %0, ptr readnone captures(none) %1) #6 {
  %3 = alloca i8, align 1
  call void @llvm.lifetime.start.p0(i64 1, ptr nonnull %3) #19
  store i8 0, ptr %3, align 1
  %4 = getelementptr inbounds nuw i8, ptr %0, i64 8
  %5 = load i16, ptr %4, align 8
  %cond = icmp eq i16 %5, 23
  br i1 %cond, label %6, label %13

6:                                                ; preds = %2
  %7 = tail call i32 (i32, ...) @prctl(i32 noundef 15, ptr noundef nonnull @.str.263, ptr noundef null, ptr noundef null, ptr noundef null) #19
  %8 = icmp slt i32 %7, 0
  br i1 %8, label %9, label %11

9:                                                ; preds = %6
  %10 = tail call i32 (ptr, ...) @error(ptr noundef nonnull @.str.264, ptr noundef nonnull @__func__._acct_update_list_for_each, ptr noundef nonnull @.str.263) #19
  br label %11

11:                                               ; preds = %9, %6
  %12 = tail call i32 @fed_mgr_update_feds(ptr noundef nonnull %0) #19
  br label %15

13:                                               ; preds = %2
  %14 = call i32 @assoc_mgr_update_object(ptr noundef nonnull %0, ptr noundef nonnull %3) #19
  br label %15

15:                                               ; preds = %13, %11
  call void @llvm.lifetime.end.p0(i64 1, ptr nonnull %3) #19
  ret i32 1
}